; Function Attrs: mustprogress uwtable
define dso_local void @_ZN3net19QuicFixedIPEndPoint16SetReceivedValueERKNS_10IPEndPointE(ptr noundef nonnull align 8 dereferenceable(89) %this, ptr noundef nonnull align 8 dereferenceable(26) %value) local_unnamed_addr #0 align 2 {
entry:
  %has_receive_value_ = getelementptr inbounds i8, ptr %this, i64 88
  store i8 1, ptr %has_receive_value_, align 8
  %receive_value_ = getelementptr inbounds i8, ptr %this, i64 56
  %call.i.i = tail call noundef nonnull align 8 dereferenceable(24) ptr @_ZNSt6vectorIhSaIhEEaSERKS1_(ptr noundef nonnull align 8 dereferenceable(24) %receive_value_, ptr noundef nonnull align 8 dereferenceable(24) %value)
  %port_.i = getelementptr inbounds i8, ptr %value, i64 24
  %0 = load i16, ptr %port_.i, align 8
  %port_3.i = getelementptr inbounds i8, ptr %this, i64 80
  store i16 %0, ptr %port_3.i, align 8
  ret void
}